; Function Attrs: mustprogress uwtable
define hidden void @_ZN4cvc58internal6theory6arrays25setMostFrequentValueCountENS0_12NodeTemplateILb0EEEm(ptr nocapture noundef readonly %store, i64 noundef %count) local_unnamed_addr #3 personality ptr @__gxx_personality_v0 {
entry:
  %ref.tmp.i.i = alloca %"class.cvc5::internal::expr::Attribute.1", align 1
  %count.addr = alloca i64, align 8
  store i64 %count, ptr %count.addr, align 8
  %call.i = tail call noundef ptr @_ZN4cvc58internal11NodeManager9currentNMEv()
  %0 = load ptr, ptr %store, align 8
  call void @llvm.lifetime.start.p0(i64 1, ptr nonnull %ref.tmp.i.i)
  %d_attrManager.i.i = getelementptr inbounds i8, ptr %call.i, i64 80
  %1 = load ptr, ptr %d_attrManager.i.i, align 8
  call void @_ZN4cvc58internal4expr4attr16AttributeManager12setAttributeINS1_9AttributeINS0_6theory6arrays4attr38ArrayConstantMostFrequentValueCountTagEmEEEEvPNS1_9NodeValueERKT_RKNSD_10value_typeE(ptr noundef nonnull align 8 dereferenceable(344) %1, ptr noundef %0, ptr noundef nonnull align 1 dereferenceable(1) %ref.tmp.i.i, ptr noundef nonnull align 8 dereferenceable(8) %count.addr)
  call void @llvm.lifetime.end.p0(i64 1, ptr nonnull %ref.tmp.i.i)
  ret void
}